target datalayout = "e-m:e-p270:32:32-p271:32:32-p272:64:64-i64:64-i128:128-f80:128-n8:16:32:64-S128"
target triple = "x86_64-pc-linux-gnu"

%struct.lv_point_t = type { i32, i32 }

@box_shadow_cb.grid_rows = internal constant [7 x i32] [i32 45, i32 45, i32 45, i32 45, i32 45, i32 45, i32 536870911], align 16
@box_shadow_cb.grid_cols = internal constant [8 x i32] [i32 68, i32 68, i32 68, i32 68, i32 68, i32 68, i32 68, i32 536870911], align 16

; Function Attrs: nounwind uwtable
define internal void @box_shadow_cb(ptr noundef %0) #0 {
  %2 = alloca ptr, align 8
  %3 = alloca [7 x %struct.lv_point_t], align 16
  %4 = alloca i32, align 4
  %5 = alloca ptr, align 8
  %6 = alloca ptr, align 8
  %7 = alloca ptr, align 8
  %8 = alloca ptr, align 8
  store ptr %0, ptr %2, align 8, !tbaa !8
  %9 = load ptr, ptr %2, align 8, !tbaa !8
  call void @lv_obj_set_grid_dsc_array(ptr noundef %9, ptr noundef @box_shadow_cb.grid_cols, ptr noundef @box_shadow_cb.grid_rows)
  call void @llvm.lifetime.start.p0(i64 56, ptr %3) #5
  call void @llvm.memcpy.p0.p0.i64(ptr align 16 %3, ptr align 16 @__const.box_shadow_cb.ofs, i64 56, i1 false)
  call void @llvm.lifetime.start.p0(i64 4, ptr %4) #5
  store i32 0, ptr %4, align 4, !tbaa !3
  br label %10

10:                                               ; preds = %31, %1
  %11 = load i32, ptr %4, align 4, !tbaa !3
  %12 = icmp ult i32 %11, 7
  br i1 %12, label %13, label %34

13:                                               ; preds = %10
  call void @llvm.lifetime.start.p0(i64 8, ptr %5) #5
  %14 = load ptr, ptr %2, align 8, !tbaa !8
  %15 = load i32, ptr %4, align 4, !tbaa !3
  %16 = call ptr @box_shadow_obj_create(ptr noundef %14, i32 noundef %15, i32 noundef 0)
  store ptr %16, ptr %5, align 8, !tbaa !8
  %17 = load ptr, ptr %5, align 8, !tbaa !8
  call void @lv_obj_set_style_radius(ptr noundef %17, i32 noundef 0, i32 noundef 0)
  %18 = load ptr, ptr %5, align 8, !tbaa !8
  call void @lv_obj_set_style_shadow_width(ptr noundef %18, i32 noundef 10, i32 noundef 0)
  %19 = load ptr, ptr %5, align 8, !tbaa !8
  %20 = load i32, ptr %4, align 4, !tbaa !3
  %21 = zext i32 %20 to i64
  %22 = getelementptr inbounds nuw [7 x %struct.lv_point_t], ptr %3, i64 0, i64 %21
  %23 = getelementptr inbounds nuw %struct.lv_point_t, ptr %22, i32 0, i32 0
  %24 = load i32, ptr %23, align 8, !tbaa !31
  call void @lv_obj_set_style_shadow_offset_x(ptr noundef %19, i32 noundef %24, i32 noundef 0)
  %25 = load ptr, ptr %5, align 8, !tbaa !8
  %26 = load i32, ptr %4, align 4, !tbaa !3
  %27 = zext i32 %26 to i64
  %28 = getelementptr inbounds nuw [7 x %struct.lv_point_t], ptr %3, i64 0, i64 %27
  %29 = getelementptr inbounds nuw %struct.lv_point_t, ptr %28, i32 0, i32 1
  %30 = load i32, ptr %29, align 4, !tbaa !33
  call void @lv_obj_set_style_shadow_offset_y(ptr noundef %25, i32 noundef %30, i32 noundef 0)
  call void @llvm.lifetime.end.p0(i64 8, ptr %5) #5
  br label %31

31:                                               ; preds = %13
  %32 = load i32, ptr %4, align 4, !tbaa !3
  %33 = add i32 %32, 1
  store i32 %33, ptr %4, align 4, !tbaa !3
  br label %10, !llvm.loop !34

34:                                               ; preds = %10
  store i32 0, ptr %4, align 4, !tbaa !3
  br label %35

35:                                               ; preds = %56, %34
  %36 = load i32, ptr %4, align 4, !tbaa !3
  %37 = icmp ult i32 %36, 7
  br i1 %37, label %38, label %59

38:                                               ; preds = %35
  call void @llvm.lifetime.start.p0(i64 8, ptr %6) #5
  %39 = load ptr, ptr %2, align 8, !tbaa !8
  %40 = load i32, ptr %4, align 4, !tbaa !3
  %41 = call ptr @box_shadow_obj_create(ptr noundef %39, i32 noundef %40, i32 noundef 1)
  store ptr %41, ptr %6, align 8, !tbaa !8
  %42 = load ptr, ptr %6, align 8, !tbaa !8
  call void @lv_obj_set_style_radius(ptr noundef %42, i32 noundef 5, i32 noundef 0)
  %43 = load ptr, ptr %6, align 8, !tbaa !8
  call void @lv_obj_set_style_shadow_width(ptr noundef %43, i32 noundef 10, i32 noundef 0)
  %44 = load ptr, ptr %6, align 8, !tbaa !8
  %45 = load i32, ptr %4, align 4, !tbaa !3
  %46 = zext i32 %45 to i64
  %47 = getelementptr inbounds nuw [7 x %struct.lv_point_t], ptr %3, i64 0, i64 %46
  %48 = getelementptr inbounds nuw %struct.lv_point_t, ptr %47, i32 0, i32 0
  %49 = load i32, ptr %48, align 8, !tbaa !31
  call void @lv_obj_set_style_shadow_offset_x(ptr noundef %44, i32 noundef %49, i32 noundef 0)
  %50 = load ptr, ptr %6, align 8, !tbaa !8
  %51 = load i32, ptr %4, align 4, !tbaa !3
  %52 = zext i32 %51 to i64
  %53 = getelementptr inbounds nuw [7 x %struct.lv_point_t], ptr %3, i64 0, i64 %52
  %54 = getelementptr inbounds nuw %struct.lv_point_t, ptr %53, i32 0, i32 1
  %55 = load i32, ptr %54, align 4, !tbaa !33
  call void @lv_obj_set_style_shadow_offset_y(ptr noundef %50, i32 noundef %55, i32 noundef 0)
  call void @llvm.lifetime.end.p0(i64 8, ptr %6) #5
  br label %56

56:                                               ; preds = %38
  %57 = load i32, ptr %4, align 4, !tbaa !3
  %58 = add i32 %57, 1
  store i32 %58, ptr %4, align 4, !tbaa !3
  br label %35, !llvm.loop !35

59:                                               ; preds = %35
  store i32 0, ptr %4, align 4, !tbaa !3
  br label %60

60:                                               ; preds = %81, %59
  %61 = load i32, ptr %4, align 4, !tbaa !3
  %62 = icmp ult i32 %61, 7
  br i1 %62, label %63, label %84

63:                                               ; preds = %60
  call void @llvm.lifetime.start.p0(i64 8, ptr %7) #5
  %64 = load ptr, ptr %2, align 8, !tbaa !8
  %65 = load i32, ptr %4, align 4, !tbaa !3
  %66 = call ptr @box_shadow_obj_create(ptr noundef %64, i32 noundef %65, i32 noundef 2)
  store ptr %66, ptr %7, align 8, !tbaa !8
  %67 = load ptr, ptr %7, align 8, !tbaa !8
  call void @lv_obj_set_style_radius(ptr noundef %67, i32 noundef 100, i32 noundef 0)
  %68 = load ptr, ptr %7, align 8, !tbaa !8
  call void @lv_obj_set_style_shadow_width(ptr noundef %68, i32 noundef 10, i32 noundef 0)
  %69 = load ptr, ptr %7, align 8, !tbaa !8
  %70 = load i32, ptr %4, align 4, !tbaa !3
  %71 = zext i32 %70 to i64
  %72 = getelementptr inbounds nuw [7 x %struct.lv_point_t], ptr %3, i64 0, i64 %71
  %73 = getelementptr inbounds nuw %struct.lv_point_t, ptr %72, i32 0, i32 0
  %74 = load i32, ptr %73, align 8, !tbaa !31
  call void @lv_obj_set_style_shadow_offset_x(ptr noundef %69, i32 noundef %74, i32 noundef 0)
  %75 = load ptr, ptr %7, align 8, !tbaa !8
  %76 = load i32, ptr %4, align 4, !tbaa !3
  %77 = zext i32 %76 to i64
  %78 = getelementptr inbounds nuw [7 x %struct.lv_point_t], ptr %3, i64 0, i64 %77
  %79 = getelementptr inbounds nuw %struct.lv_point_t, ptr %78, i32 0, i32 1
  %80 = load i32, ptr %79, align 4, !tbaa !33
  call void @lv_obj_set_style_shadow_offset_y(ptr noundef %75, i32 noundef %80, i32 noundef 0)
  call void @llvm.lifetime.end.p0(i64 8, ptr %7) #5
  br label %81

81:                                               ; preds = %63
  %82 = load i32, ptr %4, align 4, !tbaa !3
  %83 = add i32 %82, 1
  store i32 %83, ptr %4, align 4, !tbaa !3
  br label %60, !llvm.loop !36

84:                                               ; preds = %60
  store i32 0, ptr %4, align 4, !tbaa !3
  br label %85

85:                                               ; preds = %107, %84
  %86 = load i32, ptr %4, align 4, !tbaa !3
  %87 = icmp ult i32 %86, 7
  br i1 %87, label %88, label %110

88:                                               ; preds = %85
  call void @llvm.lifetime.start.p0(i64 8, ptr %8) #5
  %89 = load ptr, ptr %2, align 8, !tbaa !8
  %90 = load i32, ptr %4, align 4, !tbaa !3
  %91 = call ptr @box_shadow_obj_create(ptr noundef %89, i32 noundef %90, i32 noundef 3)
  store ptr %91, ptr %8, align 8, !tbaa !8
  %92 = load ptr, ptr %8, align 8, !tbaa !8
  call void @lv_obj_set_style_radius(ptr noundef %92, i32 noundef 5, i32 noundef 0)
  %93 = load ptr, ptr %8, align 8, !tbaa !8
  call void @lv_obj_set_style_shadow_width(ptr noundef %93, i32 noundef 10, i32 noundef 0)
  %94 = load ptr, ptr %8, align 8, !tbaa !8
  call void @lv_obj_set_style_shadow_spread(ptr noundef %94, i32 noundef 3, i32 noundef 0)
  %95 = load ptr, ptr %8, align 8, !tbaa !8
  %96 = load i32, ptr %4, align 4, !tbaa !3
  %97 = zext i32 %96 to i64
  %98 = getelementptr inbounds nuw [7 x %struct.lv_point_t], ptr %3, i64 0, i64 %97
  %99 = getelementptr inbounds nuw %struct.lv_point_t, ptr %98, i32 0, i32 0
  %100 = load i32, ptr %99, align 8, !tbaa !31
  call void @lv_obj_set_style_shadow_offset_x(ptr noundef %95, i32 noundef %100, i32 noundef 0)
  %101 = load ptr, ptr %8, align 8, !tbaa !8
  %102 = load i32, ptr %4, align 4, !tbaa !3
  %103 = zext i32 %102 to i64
  %104 = getelementptr inbounds nuw [7 x %struct.lv_point_t], ptr %3, i64 0, i64 %103
  %105 = getelementptr inbounds nuw %struct.lv_point_t, ptr %104, i32 0, i32 1
  %106 = load i32, ptr %105, align 4, !tbaa !33
  call void @lv_obj_set_style_shadow_offset_y(ptr noundef %101, i32 noundef %106, i32 noundef 0)
  call void @llvm.lifetime.end.p0(i64 8, ptr %8) #5
  br label %107

107:                                              ; preds = %88
  %108 = load i32, ptr %4, align 4, !tbaa !3
  %109 = add i32 %108, 1
  store i32 %109, ptr %4, align 4, !tbaa !3
  br label %85, !llvm.loop !37

110:                                              ; preds = %85
  call void @llvm.lifetime.end.p0(i64 4, ptr %4) #5
  call void @llvm.lifetime.end.p0(i64 56, ptr %3) #5
  ret void
}