; Function Attrs: nounwind uwtable
define internal void @box_shadow_cb(ptr noundef %0) #0 {
  tail call void @lv_obj_set_grid_dsc_array(ptr noundef %0, ptr noundef nonnull @box_shadow_cb.grid_cols, ptr noundef nonnull @box_shadow_cb.grid_rows) #6
  br label %2

2:                                                ; preds = %1, %2
  %indvars.iv = phi i64 [ 0, %1 ], [ %indvars.iv.next, %2 ]
  %3 = trunc nuw nsw i64 %indvars.iv to i32
  %4 = tail call fastcc ptr @box_shadow_obj_create(ptr noundef %0, i32 noundef %3, i32 noundef 0)
  tail call void @lv_obj_set_style_radius(ptr noundef %4, i32 noundef 0, i32 noundef 0) #6
  tail call void @lv_obj_set_style_shadow_width(ptr noundef %4, i32 noundef 10, i32 noundef 0) #6
  %5 = getelementptr inbounds nuw [7 x %struct.lv_point_t], ptr @__const.box_shadow_cb.ofs, i64 0, i64 %indvars.iv
  %6 = load i32, ptr %5, align 8, !tbaa !29
  tail call void @lv_obj_set_style_shadow_offset_x(ptr noundef %4, i32 noundef %6, i32 noundef 0) #6
  %7 = getelementptr inbounds nuw i8, ptr %5, i64 4
  %8 = load i32, ptr %7, align 4, !tbaa !31
  tail call void @lv_obj_set_style_shadow_offset_y(ptr noundef %4, i32 noundef %8, i32 noundef 0) #6
  %indvars.iv.next = add nuw nsw i64 %indvars.iv, 1
  %exitcond.not = icmp eq i64 %indvars.iv.next, 7
  br i1 %exitcond.not, label %.preheader42, label %2, !llvm.loop !32

.preheader42:                                     ; preds = %2, %.preheader42
  %indvars.iv48 = phi i64 [ %indvars.iv.next49, %.preheader42 ], [ 0, %2 ]
  %9 = trunc nuw nsw i64 %indvars.iv48 to i32
  %10 = tail call fastcc ptr @box_shadow_obj_create(ptr noundef %0, i32 noundef %9, i32 noundef 1)
  tail call void @lv_obj_set_style_radius(ptr noundef %10, i32 noundef 5, i32 noundef 0) #6
  tail call void @lv_obj_set_style_shadow_width(ptr noundef %10, i32 noundef 10, i32 noundef 0) #6
  %11 = getelementptr inbounds nuw [7 x %struct.lv_point_t], ptr @__const.box_shadow_cb.ofs, i64 0, i64 %indvars.iv48
  %12 = load i32, ptr %11, align 8, !tbaa !29
  tail call void @lv_obj_set_style_shadow_offset_x(ptr noundef %10, i32 noundef %12, i32 noundef 0) #6
  %13 = getelementptr inbounds nuw i8, ptr %11, i64 4
  %14 = load i32, ptr %13, align 4, !tbaa !31
  tail call void @lv_obj_set_style_shadow_offset_y(ptr noundef %10, i32 noundef %14, i32 noundef 0) #6
  %indvars.iv.next49 = add nuw nsw i64 %indvars.iv48, 1
  %exitcond51.not = icmp eq i64 %indvars.iv.next49, 7
  br i1 %exitcond51.not, label %.preheader41, label %.preheader42, !llvm.loop !33

.preheader41:                                     ; preds = %.preheader42, %.preheader41
  %indvars.iv52 = phi i64 [ %indvars.iv.next53, %.preheader41 ], [ 0, %.preheader42 ]
  %15 = trunc nuw nsw i64 %indvars.iv52 to i32
  %16 = tail call fastcc ptr @box_shadow_obj_create(ptr noundef %0, i32 noundef %15, i32 noundef 2)
  tail call void @lv_obj_set_style_radius(ptr noundef %16, i32 noundef 100, i32 noundef 0) #6
  tail call void @lv_obj_set_style_shadow_width(ptr noundef %16, i32 noundef 10, i32 noundef 0) #6
  %17 = getelementptr inbounds nuw [7 x %struct.lv_point_t], ptr @__const.box_shadow_cb.ofs, i64 0, i64 %indvars.iv52
  %18 = load i32, ptr %17, align 8, !tbaa !29
  tail call void @lv_obj_set_style_shadow_offset_x(ptr noundef %16, i32 noundef %18, i32 noundef 0) #6
  %19 = getelementptr inbounds nuw i8, ptr %17, i64 4
  %20 = load i32, ptr %19, align 4, !tbaa !31
  tail call void @lv_obj_set_style_shadow_offset_y(ptr noundef %16, i32 noundef %20, i32 noundef 0) #6
  %indvars.iv.next53 = add nuw nsw i64 %indvars.iv52, 1
  %exitcond55.not = icmp eq i64 %indvars.iv.next53, 7
  br i1 %exitcond55.not, label %.preheader, label %.preheader41, !llvm.loop !34

.preheader:                                       ; preds = %.preheader41, %.preheader
  %indvars.iv56 = phi i64 [ %indvars.iv.next57, %.preheader ], [ 0, %.preheader41 ]
  %21 = trunc nuw nsw i64 %indvars.iv56 to i32
  %22 = tail call fastcc ptr @box_shadow_obj_create(ptr noundef %0, i32 noundef %21, i32 noundef 3)
  tail call void @lv_obj_set_style_radius(ptr noundef %22, i32 noundef 5, i32 noundef 0) #6
  tail call void @lv_obj_set_style_shadow_width(ptr noundef %22, i32 noundef 10, i32 noundef 0) #6
  tail call void @lv_obj_set_style_shadow_spread(ptr noundef %22, i32 noundef 3, i32 noundef 0) #6
  %23 = getelementptr inbounds nuw [7 x %struct.lv_point_t], ptr @__const.box_shadow_cb.ofs, i64 0, i64 %indvars.iv56
  %24 = load i32, ptr %23, align 8, !tbaa !29
  tail call void @lv_obj_set_style_shadow_offset_x(ptr noundef %22, i32 noundef %24, i32 noundef 0) #6
  %25 = getelementptr inbounds nuw i8, ptr %23, i64 4
  %26 = load i32, ptr %25, align 4, !tbaa !31
  tail call void @lv_obj_set_style_shadow_offset_y(ptr noundef %22, i32 noundef %26, i32 noundef 0) #6
  %indvars.iv.next57 = add nuw nsw i64 %indvars.iv56, 1
  %exitcond59.not = icmp eq i64 %indvars.iv.next57, 7
  br i1 %exitcond59.not, label %27, label %.preheader, !llvm.loop !35

27:                                               ; preds = %.preheader
  ret void
}